target datalayout = "e-m:e-p270:32:32-p271:32:32-p272:64:64-i64:64-i128:128-f80:128-n8:16:32:64-S128"
target triple = "x86_64-pc-linux-gnu"

%struct.FSMAddress = type { i32, i32 }
%struct.RelFileLocator = type { i32, i32, i32 }
%struct.RelationData = type { %struct.RelFileLocator, ptr, i32, i32, i8, i8, i8, i8, i8, i32, i32, i32, i32, ptr, ptr, i32, %struct.LockInfoData, ptr, ptr, ptr, ptr, ptr, i8, ptr, ptr, ptr, ptr, ptr, ptr, i32, ptr, i8, ptr, ptr, i32, i8, i32, ptr, i8, ptr, ptr, ptr, ptr, ptr, ptr, ptr, i32, ptr, ptr, ptr, ptr, ptr, ptr, ptr, ptr, ptr, ptr, ptr, ptr, ptr, ptr, ptr, ptr, ptr, ptr, ptr, i32, i8, ptr }
%struct.LockInfoData = type { %struct.LockRelId }
%struct.LockRelId = type { i32, i32 }
%struct.FormData_pg_class = type { i32, %struct.nameData, i32, i32, i32, i32, i32, i32, i32, i32, float, i32, i32, i8, i8, i8, i8, i16, i16, i8, i8, i8, i8, i8, i8, i8, i8, i32, i32, i32 }
%struct.nameData = type { [64 x i8] }

@CritSectionCount = external global i32, align 4
@InRecovery = external global i8, align 1
@wal_level = external global i32, align 4
@wal_log_hints = external global i8, align 1
@LocalBufferBlockPointers = external global ptr, align 8
@BufferBlocks = external global ptr, align 8

; Function Attrs: inlinehint nounwind uwtable
define internal ptr @BufferGetBlock(i32 noundef %0) #4 {
  %2 = alloca ptr, align 8
  %3 = alloca i32, align 4
  store i32 %0, ptr %3, align 4
  %4 = load i32, ptr %3, align 4
  %5 = icmp slt i32 %4, 0
  br i1 %5, label %6, label %14

6:                                                ; preds = %1
  %7 = load ptr, ptr @LocalBufferBlockPointers, align 8
  %8 = load i32, ptr %3, align 4
  %9 = sub i32 0, %8
  %10 = sub i32 %9, 1
  %11 = sext i32 %10 to i64
  %12 = getelementptr inbounds ptr, ptr %7, i64 %11
  %13 = load ptr, ptr %12, align 8
  store ptr %13, ptr %2, align 8
  br label %21

14:                                               ; preds = %1
  %15 = load ptr, ptr @BufferBlocks, align 8
  %16 = load i32, ptr %3, align 4
  %17 = sub i32 %16, 1
  %18 = sext i32 %17 to i64
  %19 = mul i64 %18, 8192
  %20 = getelementptr inbounds nuw i8, ptr %15, i64 %19
  store ptr %20, ptr %2, align 8
  br label %21

21:                                               ; preds = %14, %6
  %22 = load ptr, ptr %2, align 8
  ret ptr %22
}

; Function Attrs: nounwind uwtable
define internal i32 @fsm_logical_to_physical(i64 %0) #0 {
  %2 = alloca %struct.FSMAddress, align 4
  %3 = alloca i32, align 4
  %4 = alloca i32, align 4
  %5 = alloca i32, align 4
  store i64 %0, ptr %2, align 4
  call void @llvm.lifetime.start.p0(i64 4, ptr %3) #8
  call void @llvm.lifetime.start.p0(i64 4, ptr %4) #8
  call void @llvm.lifetime.start.p0(i64 4, ptr %5) #8
  %6 = getelementptr inbounds nuw %struct.FSMAddress, ptr %2, i32 0, i32 1
  %7 = load i32, ptr %6, align 4
  store i32 %7, ptr %4, align 4
  store i32 0, ptr %5, align 4
  br label %8

8:                                                ; preds = %18, %1
  %9 = load i32, ptr %5, align 4
  %10 = getelementptr inbounds nuw %struct.FSMAddress, ptr %2, i32 0, i32 0
  %11 = load i32, ptr %10, align 4
  %12 = icmp slt i32 %9, %11
  br i1 %12, label %13, label %21

13:                                               ; preds = %8
  %14 = load i32, ptr %4, align 4
  %15 = sext i32 %14 to i64
  %16 = mul i64 %15, 4069
  %17 = trunc i64 %16 to i32
  store i32 %17, ptr %4, align 4
  br label %18

18:                                               ; preds = %13
  %19 = load i32, ptr %5, align 4
  %20 = add i32 %19, 1
  store i32 %20, ptr %5, align 4
  br label %8, !llvm.loop !4

21:                                               ; preds = %8
  store i32 0, ptr %3, align 4
  store i32 0, ptr %5, align 4
  br label %22

22:                                               ; preds = %34, %21
  %23 = load i32, ptr %5, align 4
  %24 = icmp slt i32 %23, 3
  br i1 %24, label %25, label %37

25:                                               ; preds = %22
  %26 = load i32, ptr %4, align 4
  %27 = add i32 %26, 1
  %28 = load i32, ptr %3, align 4
  %29 = add i32 %28, %27
  store i32 %29, ptr %3, align 4
  %30 = load i32, ptr %4, align 4
  %31 = sext i32 %30 to i64
  %32 = udiv i64 %31, 4069
  %33 = trunc i64 %32 to i32
  store i32 %33, ptr %4, align 4
  br label %34

34:                                               ; preds = %25
  %35 = load i32, ptr %5, align 4
  %36 = add i32 %35, 1
  store i32 %36, ptr %5, align 4
  br label %22, !llvm.loop !6

37:                                               ; preds = %22
  %38 = getelementptr inbounds nuw %struct.FSMAddress, ptr %2, i32 0, i32 0
  %39 = load i32, ptr %38, align 4
  %40 = load i32, ptr %3, align 4
  %41 = sub i32 %40, %39
  store i32 %41, ptr %3, align 4
  %42 = load i32, ptr %3, align 4
  %43 = sub i32 %42, 1
  call void @llvm.lifetime.end.p0(i64 4, ptr %5) #8
  call void @llvm.lifetime.end.p0(i64 4, ptr %4) #8
  call void @llvm.lifetime.end.p0(i64 4, ptr %3) #8
  ret i32 %43
}

; Function Attrs: inlinehint nounwind uwtable
define internal ptr @BufferGetPage(i32 noundef %0) #4 {
  %2 = alloca i32, align 4
  store i32 %0, ptr %2, align 4
  %3 = load i32, ptr %2, align 4
  %4 = call ptr @BufferGetBlock(i32 noundef %3)
  ret ptr %4
}

; Function Attrs: inlinehint nounwind uwtable
define internal zeroext i1 @BufferIsValid(i32 noundef %0) #4 {
  %2 = alloca i32, align 4
  store i32 %0, ptr %2, align 4
  %3 = load i32, ptr %2, align 4
  %4 = icmp ne i32 %3, 0
  ret i1 %4
}

; Function Attrs: nounwind uwtable
define internal i64 @fsm_get_location(i32 noundef %0, ptr noundef %1) #0 {
  %3 = alloca %struct.FSMAddress, align 4
  %4 = alloca i32, align 4
  %5 = alloca ptr, align 8
  store i32 %0, ptr %4, align 4
  store ptr %1, ptr %5, align 8
  %6 = getelementptr inbounds nuw %struct.FSMAddress, ptr %3, i32 0, i32 0
  store i32 0, ptr %6, align 4
  %7 = load i32, ptr %4, align 4
  %8 = zext i32 %7 to i64
  %9 = udiv i64 %8, 4069
  %10 = trunc i64 %9 to i32
  %11 = getelementptr inbounds nuw %struct.FSMAddress, ptr %3, i32 0, i32 1
  store i32 %10, ptr %11, align 4
  %12 = load i32, ptr %4, align 4
  %13 = zext i32 %12 to i64
  %14 = urem i64 %13, 4069
  %15 = trunc i64 %14 to i16
  %16 = load ptr, ptr %5, align 8
  store i16 %15, ptr %16, align 2
  %17 = load i64, ptr %3, align 4
  ret i64 %17
}

; Function Attrs: inlinehint nounwind uwtable
define internal ptr @RelationGetSmgr(ptr noundef %0) #4 {
  %2 = alloca ptr, align 8
  %3 = alloca { i64, i32 }, align 8
  store ptr %0, ptr %2, align 8
  %4 = load ptr, ptr %2, align 8
  %5 = getelementptr inbounds nuw %struct.RelationData, ptr %4, i32 0, i32 1
  %6 = load ptr, ptr %5, align 8
  %7 = icmp eq ptr %6, null
  %8 = zext i1 %7 to i32
  %9 = icmp ne i32 %8, 0
  %10 = zext i1 %9 to i32
  %11 = sext i32 %10 to i64
  %12 = call i64 @llvm.expect.i64(i64 %11, i64 0)
  %13 = icmp ne i64 %12, 0
  br i1 %13, label %14, label %30

14:                                               ; preds = %1
  %15 = load ptr, ptr %2, align 8
  %16 = getelementptr inbounds nuw %struct.RelationData, ptr %15, i32 0, i32 0
  %17 = load ptr, ptr %2, align 8
  %18 = getelementptr inbounds nuw %struct.RelationData, ptr %17, i32 0, i32 3
  %19 = load i32, ptr %18, align 4
  call void @llvm.memcpy.p0.p0.i64(ptr align 8 %3, ptr align 8 %16, i64 12, i1 false)
  %20 = getelementptr inbounds nuw { i64, i32 }, ptr %3, i32 0, i32 0
  %21 = load i64, ptr %20, align 8
  %22 = getelementptr inbounds nuw { i64, i32 }, ptr %3, i32 0, i32 1
  %23 = load i32, ptr %22, align 8
  %24 = call ptr @smgropen(i64 %21, i32 %23, i32 noundef %19)
  %25 = load ptr, ptr %2, align 8
  %26 = getelementptr inbounds nuw %struct.RelationData, ptr %25, i32 0, i32 1
  store ptr %24, ptr %26, align 8
  %27 = load ptr, ptr %2, align 8
  %28 = getelementptr inbounds nuw %struct.RelationData, ptr %27, i32 0, i32 1
  %29 = load ptr, ptr %28, align 8
  call void @smgrpin(ptr noundef %29)
  br label %30

30:                                               ; preds = %14, %1
  %31 = load ptr, ptr %2, align 8
  %32 = getelementptr inbounds nuw %struct.RelationData, ptr %31, i32 0, i32 1
  %33 = load ptr, ptr %32, align 8
  ret ptr %33
}

; Function Attrs: nounwind uwtable
define dso_local i32 @FreeSpaceMapPrepareTruncateRel(ptr noundef %0, i32 noundef %1) #0 {
  %3 = alloca i32, align 4
  %4 = alloca ptr, align 8
  %5 = alloca i32, align 4
  %6 = alloca i32, align 4
  %7 = alloca %struct.FSMAddress, align 4
  %8 = alloca i16, align 2
  %9 = alloca i32, align 4
  %10 = alloca i32, align 4
  %11 = alloca %struct.FSMAddress, align 4
  store ptr %0, ptr %4, align 8
  store i32 %1, ptr %5, align 4
  call void @llvm.lifetime.start.p0(i64 4, ptr %6) #8
  call void @llvm.lifetime.start.p0(i64 8, ptr %7) #8
  call void @llvm.lifetime.start.p0(i64 2, ptr %8) #8
  call void @llvm.lifetime.start.p0(i64 4, ptr %9) #8
  %12 = load ptr, ptr %4, align 8
  %13 = call ptr @RelationGetSmgr(ptr noundef %12)
  %14 = call zeroext i1 @smgrexists(ptr noundef %13, i32 noundef 1)
  br i1 %14, label %16, label %15

15:                                               ; preds = %2
  store i32 -1, ptr %3, align 4
  store i32 1, ptr %10, align 4
  br label %92

16:                                               ; preds = %2
  call void @llvm.lifetime.start.p0(i64 8, ptr %11) #8
  %17 = load i32, ptr %5, align 4
  %18 = call i64 @fsm_get_location(i32 noundef %17, ptr noundef %8)
  store i64 %18, ptr %11, align 4
  call void @llvm.memcpy.p0.p0.i64(ptr align 4 %7, ptr align 4 %11, i64 8, i1 false)
  call void @llvm.lifetime.end.p0(i64 8, ptr %11) #8
  %19 = load i16, ptr %8, align 2
  %20 = zext i16 %19 to i32
  %21 = icmp sgt i32 %20, 0
  br i1 %21, label %22, label %80

22:                                               ; preds = %16
  %23 = load ptr, ptr %4, align 8
  %24 = load i64, ptr %7, align 4
  %25 = call i32 @fsm_readbuf(ptr noundef %23, i64 %24, i1 noundef zeroext false)
  store i32 %25, ptr %9, align 4
  %26 = load i32, ptr %9, align 4
  %27 = call zeroext i1 @BufferIsValid(i32 noundef %26)
  br i1 %27, label %29, label %28

28:                                               ; preds = %22
  store i32 -1, ptr %3, align 4
  store i32 1, ptr %10, align 4
  br label %92

29:                                               ; preds = %22
  %30 = load i32, ptr %9, align 4
  call void @LockBuffer(i32 noundef %30, i32 noundef 2)
  %31 = load volatile i32, ptr @CritSectionCount, align 4
  %32 = add i32 %31, 1
  store volatile i32 %32, ptr @CritSectionCount, align 4
  %33 = load i32, ptr %9, align 4
  %34 = call ptr @BufferGetPage(i32 noundef %33)
  %35 = load i16, ptr %8, align 2
  %36 = zext i16 %35 to i32
  %37 = call zeroext i1 @fsm_truncate_avail(ptr noundef %34, i32 noundef %36)
  %38 = load i32, ptr %9, align 4
  call void @MarkBufferDirty(i32 noundef %38)
  %39 = load i8, ptr @InRecovery, align 1, !range !7, !noundef !8
  %40 = trunc i8 %39 to i1
  br i1 %40, label %70, label %41

41:                                               ; preds = %29
  %42 = load ptr, ptr %4, align 8
  %43 = getelementptr inbounds nuw %struct.RelationData, ptr %42, i32 0, i32 13
  %44 = load ptr, ptr %43, align 8
  %45 = getelementptr inbounds nuw %struct.FormData_pg_class, ptr %44, i32 0, i32 15
  %46 = load i8, ptr %45, align 2
  %47 = sext i8 %46 to i32
  %48 = icmp eq i32 %47, 112
  br i1 %48, label %49, label %70

49:                                               ; preds = %41
  %50 = load i32, ptr @wal_level, align 4
  %51 = icmp sge i32 %50, 1
  br i1 %51, label %62, label %52

52:                                               ; preds = %49
  %53 = load ptr, ptr %4, align 8
  %54 = getelementptr inbounds nuw %struct.RelationData, ptr %53, i32 0, i32 9
  %55 = load i32, ptr %54, align 8
  %56 = icmp eq i32 %55, 0
  br i1 %56, label %57, label %70

57:                                               ; preds = %52
  %58 = load ptr, ptr %4, align 8
  %59 = getelementptr inbounds nuw %struct.RelationData, ptr %58, i32 0, i32 11
  %60 = load i32, ptr %59, align 8
  %61 = icmp eq i32 %60, 0
  br i1 %61, label %62, label %70

62:                                               ; preds = %57, %49
  %63 = call zeroext i1 @DataChecksumsEnabled()
  br i1 %63, label %67, label %64

64:                                               ; preds = %62
  %65 = load i8, ptr @wal_log_hints, align 1, !range !7, !noundef !8
  %66 = trunc i8 %65 to i1
  br i1 %66, label %67, label %70

67:                                               ; preds = %64, %62
  %68 = load i32, ptr %9, align 4
  %69 = call i64 @log_newpage_buffer(i32 noundef %68, i1 noundef zeroext false)
  br label %70

70:                                               ; preds = %67, %64, %57, %52, %41, %29
  br label %71

71:                                               ; preds = %70
  %72 = load volatile i32, ptr @CritSectionCount, align 4
  %73 = add i32 %72, -1
  store volatile i32 %73, ptr @CritSectionCount, align 4
  br label %74

74:                                               ; preds = %71
  br label %75

75:                                               ; preds = %74
  %76 = load i32, ptr %9, align 4
  call void @UnlockReleaseBuffer(i32 noundef %76)
  %77 = load i64, ptr %7, align 4
  %78 = call i32 @fsm_logical_to_physical(i64 %77)
  %79 = add i32 %78, 1
  store i32 %79, ptr %6, align 4
  br label %90

80:                                               ; preds = %16
  %81 = load i64, ptr %7, align 4
  %82 = call i32 @fsm_logical_to_physical(i64 %81)
  store i32 %82, ptr %6, align 4
  %83 = load ptr, ptr %4, align 8
  %84 = call ptr @RelationGetSmgr(ptr noundef %83)
  %85 = call i32 @smgrnblocks(ptr noundef %84, i32 noundef 1)
  %86 = load i32, ptr %6, align 4
  %87 = icmp ule i32 %85, %86
  br i1 %87, label %88, label %89

88:                                               ; preds = %80
  store i32 -1, ptr %3, align 4
  store i32 1, ptr %10, align 4
  br label %92

89:                                               ; preds = %80
  br label %90

90:                                               ; preds = %89, %75
  %91 = load i32, ptr %6, align 4
  store i32 %91, ptr %3, align 4
  store i32 1, ptr %10, align 4
  br label %92

92:                                               ; preds = %90, %88, %28, %15
  call void @llvm.lifetime.end.p0(i64 4, ptr %9) #8
  call void @llvm.lifetime.end.p0(i64 2, ptr %8) #8
  call void @llvm.lifetime.end.p0(i64 8, ptr %7) #8
  call void @llvm.lifetime.end.p0(i64 4, ptr %6) #8
  %93 = load i32, ptr %3, align 4
  ret i32 %93
}