; Function Attrs: nounwind uwtable
define dso_local i32 @FreeSpaceMapPrepareTruncateRel(ptr noundef %0, i32 noundef %1) local_unnamed_addr #0 {
  %3 = getelementptr inbounds nuw i8, ptr %0, i64 16
  %4 = load ptr, ptr %3, align 8
  %5 = icmp eq ptr %4, null
  br i1 %5, label %6, label %RelationGetSmgr.exit, !prof !4

6:                                                ; preds = %2
  %7 = getelementptr inbounds nuw i8, ptr %0, i64 28
  %8 = load i32, ptr %7, align 4
  %.sroa.0.0.copyload.i = load i64, ptr %0, align 8
  %.sroa.2.0..sroa_idx.i = getelementptr inbounds nuw i8, ptr %0, i64 8
  %.sroa.2.0.copyload.i = load i32, ptr %.sroa.2.0..sroa_idx.i, align 8
  %9 = tail call ptr @smgropen(i64 %.sroa.0.0.copyload.i, i32 %.sroa.2.0.copyload.i, i32 noundef %8) #8
  store ptr %9, ptr %3, align 8
  tail call void @smgrpin(ptr noundef %9) #8
  %.pre.i = load ptr, ptr %3, align 8
  br label %RelationGetSmgr.exit

RelationGetSmgr.exit:                             ; preds = %2, %6
  %10 = phi ptr [ %.pre.i, %6 ], [ %4, %2 ]
  %11 = tail call zeroext i1 @smgrexists(ptr noundef %10, i32 noundef 1) #8
  br i1 %11, label %12, label %81

12:                                               ; preds = %RelationGetSmgr.exit
  %13 = udiv i32 %1, 4069
  %14 = urem i32 %1, 4069
  %.sroa.2.0.insert.ext.i = zext nneg i32 %13 to i64
  %.not = icmp eq i32 %14, 0
  br i1 %.not, label %.preheader.i22, label %15

15:                                               ; preds = %12
  %.sroa.2.0.insert.shift.i = shl nuw nsw i64 %.sroa.2.0.insert.ext.i, 32
  %16 = tail call fastcc i32 @fsm_readbuf(ptr noundef nonnull %0, i64 %.sroa.2.0.insert.shift.i, i1 noundef zeroext false)
  %.not42 = icmp eq i32 %16, 0
  br i1 %.not42, label %81, label %17

17:                                               ; preds = %15
  tail call void @LockBuffer(i32 noundef %16, i32 noundef 2) #8
  %18 = load volatile i32, ptr @CritSectionCount, align 4
  %19 = add i32 %18, 1
  store volatile i32 %19, ptr @CritSectionCount, align 4
  %20 = icmp slt i32 %16, 0
  br i1 %20, label %21, label %27

21:                                               ; preds = %17
  %22 = load ptr, ptr @LocalBufferBlockPointers, align 8
  %23 = xor i32 %16, -1
  %24 = zext nneg i32 %23 to i64
  %25 = getelementptr inbounds nuw ptr, ptr %22, i64 %24
  %26 = load ptr, ptr %25, align 8
  br label %BufferGetPage.exit

27:                                               ; preds = %17
  %28 = load ptr, ptr @BufferBlocks, align 8
  %29 = add nsw i32 %16, -1
  %30 = zext nneg i32 %29 to i64
  %31 = shl nuw nsw i64 %30, 13
  %32 = getelementptr inbounds nuw i8, ptr %28, i64 %31
  br label %BufferGetPage.exit

BufferGetPage.exit:                               ; preds = %21, %27
  %.0.i.i = phi ptr [ %26, %21 ], [ %32, %27 ]
  %33 = tail call zeroext i1 @fsm_truncate_avail(ptr noundef %.0.i.i, i32 noundef %14) #8
  tail call void @MarkBufferDirty(i32 noundef %16) #8
  %34 = load i8, ptr @InRecovery, align 1, !range !8, !noundef !9
  %35 = trunc nuw i8 %34 to i1
  br i1 %35, label %.preheader.i, label %36

36:                                               ; preds = %BufferGetPage.exit
  %37 = getelementptr inbounds nuw i8, ptr %0, i64 56
  %38 = load ptr, ptr %37, align 8
  %39 = getelementptr inbounds nuw i8, ptr %38, i64 114
  %40 = load i8, ptr %39, align 2
  %41 = icmp eq i8 %40, 112
  br i1 %41, label %42, label %.preheader.i

42:                                               ; preds = %36
  %43 = load i32, ptr @wal_level, align 4
  %44 = icmp sgt i32 %43, 0
  br i1 %44, label %53, label %45

45:                                               ; preds = %42
  %46 = getelementptr inbounds nuw i8, ptr %0, i64 40
  %47 = load i32, ptr %46, align 8
  %48 = icmp eq i32 %47, 0
  br i1 %48, label %49, label %.preheader.i

49:                                               ; preds = %45
  %50 = getelementptr inbounds nuw i8, ptr %0, i64 48
  %51 = load i32, ptr %50, align 8
  %52 = icmp eq i32 %51, 0
  br i1 %52, label %53, label %.preheader.i

53:                                               ; preds = %49, %42
  %54 = tail call zeroext i1 @DataChecksumsEnabled() #8
  br i1 %54, label %58, label %55

55:                                               ; preds = %53
  %56 = load i8, ptr @wal_log_hints, align 1, !range !8, !noundef !9
  %57 = trunc nuw i8 %56 to i1
  br i1 %57, label %58, label %.preheader.i

58:                                               ; preds = %55, %53
  %59 = tail call i64 @log_newpage_buffer(i32 noundef %16, i1 noundef zeroext false) #8
  br label %.preheader.i

.preheader.i:                                     ; preds = %BufferGetPage.exit, %36, %45, %49, %55, %58
  %60 = load volatile i32, ptr @CritSectionCount, align 4
  %61 = add i32 %60, -1
  store volatile i32 %61, ptr @CritSectionCount, align 4
  tail call void @UnlockReleaseBuffer(i32 noundef %16) #8
  br label %62

62:                                               ; preds = %62, %.preheader.i
  %.119.i = phi i32 [ 0, %.preheader.i ], [ %66, %62 ]
  %.112.in18.i = phi i64 [ %.sroa.2.0.insert.ext.i, %.preheader.i ], [ %65, %62 ]
  %.01317.i = phi i32 [ 0, %.preheader.i ], [ %64, %62 ]
  %.112.i = trunc nuw nsw i64 %.112.in18.i to i32
  %63 = add i32 %.01317.i, 1
  %64 = add i32 %63, %.112.i
  %65 = udiv i64 %.112.in18.i, 4069
  %66 = add nuw nsw i32 %.119.i, 1
  %exitcond21.not.i = icmp eq i32 %66, 3
  br i1 %exitcond21.not.i, label %fsm_logical_to_physical.exit, label %62, !llvm.loop !5

fsm_logical_to_physical.exit:                     ; preds = %62
  %67 = add nuw nsw i32 %.112.i, 1
  %68 = add i32 %67, %.01317.i
  br label %81

.preheader.i22:                                   ; preds = %12, %.preheader.i22
  %.119.i24 = phi i32 [ %72, %.preheader.i22 ], [ 0, %12 ]
  %.112.in18.i25 = phi i64 [ %71, %.preheader.i22 ], [ %.sroa.2.0.insert.ext.i, %12 ]
  %.01317.i26 = phi i32 [ %70, %.preheader.i22 ], [ 0, %12 ]
  %.112.i27 = trunc nuw nsw i64 %.112.in18.i25 to i32
  %69 = add i32 %.01317.i26, %.112.i27
  %70 = add i32 %69, 1
  %71 = udiv i64 %.112.in18.i25, 4069
  %72 = add nuw nsw i32 %.119.i24, 1
  %exitcond21.not.i29 = icmp eq i32 %72, 3
  br i1 %exitcond21.not.i29, label %fsm_logical_to_physical.exit35, label %.preheader.i22, !llvm.loop !5

fsm_logical_to_physical.exit35:                   ; preds = %.preheader.i22
  %73 = load ptr, ptr %3, align 8
  %74 = icmp eq ptr %73, null
  br i1 %74, label %75, label %RelationGetSmgr.exit40, !prof !4

75:                                               ; preds = %fsm_logical_to_physical.exit35
  %76 = getelementptr inbounds nuw i8, ptr %0, i64 28
  %77 = load i32, ptr %76, align 4
  %.sroa.0.0.copyload.i36 = load i64, ptr %0, align 8
  %.sroa.2.0..sroa_idx.i37 = getelementptr inbounds nuw i8, ptr %0, i64 8
  %.sroa.2.0.copyload.i38 = load i32, ptr %.sroa.2.0..sroa_idx.i37, align 8
  %78 = tail call ptr @smgropen(i64 %.sroa.0.0.copyload.i36, i32 %.sroa.2.0.copyload.i38, i32 noundef %77) #8
  store ptr %78, ptr %3, align 8
  tail call void @smgrpin(ptr noundef %78) #8
  %.pre.i39 = load ptr, ptr %3, align 8
  br label %RelationGetSmgr.exit40

RelationGetSmgr.exit40:                           ; preds = %fsm_logical_to_physical.exit35, %75
  %79 = phi ptr [ %.pre.i39, %75 ], [ %73, %fsm_logical_to_physical.exit35 ]
  %80 = tail call i32 @smgrnblocks(ptr noundef %79, i32 noundef 1) #8
  %.not20 = icmp ugt i32 %80, %69
  %spec.select = select i1 %.not20, i32 %69, i32 -1
  br label %81

81:                                               ; preds = %RelationGetSmgr.exit40, %fsm_logical_to_physical.exit, %15, %RelationGetSmgr.exit
  %.0 = phi i32 [ -1, %RelationGetSmgr.exit ], [ -1, %15 ], [ %68, %fsm_logical_to_physical.exit ], [ %spec.select, %RelationGetSmgr.exit40 ]
  ret i32 %.0
}